; ModuleID = '60/578.c'
source_filename = "60/578.c"
target datalayout = "e-m:e-p270:32:32-p271:32:32-p272:64:64-i64:64-f80:128-n8:16:32:64-S128"
target triple = "x86_64-pc-linux-gnu"

@.str = private unnamed_addr constant [3 x i8] c"%d\00", align 1
@.str.1 = private unnamed_addr constant [7 x i8] c"%d %d\0A\00", align 1
@.str.2 = private unnamed_addr constant [6 x i8] c"empty\00", align 1

; Function Attrs: noinline nounwind uwtable
define dso_local i32 @test(i32 %0) #0 {
  %2 = alloca i32, align 4
  %3 = alloca i32, align 4
  %4 = alloca i32, align 4
  %5 = alloca i32, align 4
  store i32 %0, i32* %3, align 4
  %6 = load i32, i32* %3, align 4
  %7 = sitofp i32 %6 to double
  %8 = call double @sqrt(double %7) #3
  %9 = fptosi double %8 to i32
  %10 = add nsw i32 %9, 1
  store i32 %10, i32* %5, align 4
  store i32 2, i32* %4, align 4
  br label %11

11:                                               ; preds = %22, %1
  %12 = load i32, i32* %4, align 4
  %13 = load i32, i32* %5, align 4
  %14 = icmp sle i32 %12, %13
  br i1 %14, label %15, label %25

15:                                               ; preds = %11
  %16 = load i32, i32* %3, align 4
  %17 = load i32, i32* %4, align 4
  %18 = srem i32 %16, %17
  %19 = icmp eq i32 %18, 0
  br i1 %19, label %20, label %21

20:                                               ; preds = %15
  store i32 0, i32* %2, align 4
  br label %26

21:                                               ; preds = %15
  br label %22

22:                                               ; preds = %21
  %23 = load i32, i32* %4, align 4
  %24 = add nsw i32 %23, 1
  store i32 %24, i32* %4, align 4
  br label %11

25:                                               ; preds = %11
  store i32 1, i32* %2, align 4
  br label %26

26:                                               ; preds = %25, %20
  %27 = load i32, i32* %2, align 4
  ret i32 %27
}

; Function Attrs: nounwind
declare dso_local double @sqrt(double) #1

; Function Attrs: noinline nounwind uwtable
define dso_local i32 @main() #0 {
  %1 = alloca i32, align 4
  %2 = alloca i32, align 4
  %3 = alloca i32, align 4
  %4 = alloca i32, align 4
  store i32 0, i32* %1, align 4
  store i32 0, i32* %4, align 4
  %5 = call i32 (i8*, ...) @__isoc99_scanf(i8* getelementptr inbounds ([3 x i8], [3 x i8]* @.str, i64 0, i64 0), i32* %2)
  store i32 2, i32* %3, align 4
  br label %6

6:                                                ; preds = %26, %0
  %7 = load i32, i32* %3, align 4
  %8 = add nsw i32 %7, 2
  %9 = load i32, i32* %2, align 4
  %10 = icmp sle i32 %8, %9
  br i1 %10, label %11, label %29

11:                                               ; preds = %6
  %12 = load i32, i32* %3, align 4
  %13 = call i32 @test(i32 %12)
  %14 = icmp ne i32 %13, 0
  br i1 %14, label %15, label %25

15:                                               ; preds = %11
  %16 = load i32, i32* %3, align 4
  %17 = add nsw i32 %16, 2
  %18 = call i32 @test(i32 %17)
  %19 = icmp ne i32 %18, 0
  br i1 %19, label %20, label %25

20:                                               ; preds = %15
  store i32 1, i32* %4, align 4
  %21 = load i32, i32* %3, align 4
  %22 = load i32, i32* %3, align 4
  %23 = add nsw i32 %22, 2
  %24 = call i32 (i8*, ...) @printf(i8* getelementptr inbounds ([7 x i8], [7 x i8]* @.str.1, i64 0, i64 0), i32 %21, i32 %23)
  br label %25

25:                                               ; preds = %20, %15, %11
  br label %26

26:                                               ; preds = %25
  %27 = load i32, i32* %3, align 4
  %28 = add nsw i32 %27, 1
  store i32 %28, i32* %3, align 4
  br label %6

29:                                               ; preds = %6
  %30 = load i32, i32* %4, align 4
  %31 = icmp ne i32 %30, 0
  br i1 %31, label %34, label %32

32:                                               ; preds = %29
  %33 = call i32 (i8*, ...) @printf(i8* getelementptr inbounds ([6 x i8], [6 x i8]* @.str.2, i64 0, i64 0))
  br label %34

34:                                               ; preds = %32, %29
  ret i32 0
}

declare dso_local i32 @__isoc99_scanf(i8*, ...) #2

declare dso_local i32 @printf(i8*, ...) #2


!llvm.module.flags = !{!0}
!llvm.ident = !{!1}

!0 = !{i32 1, !"wchar_size", i32 4}
!1 = !{!"clang version 10.0.0-4ubuntu1 "}
